target datalayout = "e-m:e-p270:32:32-p271:32:32-p272:64:64-i64:64-i128:128-f80:128-n8:16:32:64-S128"
target triple = "x86_64-pc-linux-gnu"

%struct.CVodeMemRec = type { ptr, double, ptr, ptr, i32, i32, double, double, ptr, i32, i32, ptr, ptr, i32, i32, ptr, i32, i32, double, double, ptr, i32, i32, i32, i32, ptr, ptr, ptr, i32, i32, ptr, ptr, ptr, i32, double, i32, i32, double, ptr, ptr, ptr, i32, ptr, ptr, i32, i32, i32, double, ptr, ptr, ptr, [13 x ptr], ptr, ptr, ptr, ptr, ptr, ptr, ptr, ptr, ptr, [13 x ptr], ptr, ptr, ptr, ptr, [13 x ptr], ptr, ptr, ptr, ptr, ptr, i32, [13 x ptr], ptr, ptr, ptr, ptr, ptr, i32, i32, double, i32, i32, i32, i32, i32, double, double, double, double, double, double, double, double, [14 x double], [6 x double], [13 x double], double, double, double, double, double, double, double, double, i32, double, double, i32, double, double, ptr, i32, i64, i32, i32, i32, double, double, double, double, double, double, double, double, double, double, double, double, i64, i32, i64, i64, i64, i64, i64, i64, i64, i64, i64, ptr, i64, i64, ptr, i64, i64, ptr, i64, i64, i64, i64, i64, i64, i32, double, double, double, i64, i64, i64, i64, i64, i64, ptr, i32, ptr, i32, ptr, i32, ptr, i32, i32, i64, i32, ptr, i32, ptr, ptr, ptr, ptr, ptr, ptr, i32, i32, ptr, ptr, ptr, ptr, ptr, i64, double, i32, i32, i64, double, double, double, i32, i32, double, i32, i32, i32, i32, i32, i32, i32, i32, i32, i32, i32, i32, i32, i32, i32, i32, ptr, i64, i32, [6 x [4 x double]], i32, i64, ptr, i32, ptr, ptr, double, double, double, ptr, ptr, ptr, double, double, i32, i32, i64, ptr, i32, ptr, i32, i32, [13 x double], ptr, ptr, ptr, i32, ptr, i32 }

@.str = private unnamed_addr constant [123 x i8] c"generated/home/dtcxzyw/WorkSpace/Projects/compilers/llvm-opt-benchmark/bench/sundials/sundials/src/cvodes/cvodes_nls_sim.c\00", align 1
@__func__.cvNlsInitSensSim = private unnamed_addr constant [17 x i8] c"cvNlsInitSensSim\00", align 1
@.str.12 = private unnamed_addr constant [48 x i8] c"Setting the linear solver setup function failed\00", align 1
@.str.13 = private unnamed_addr constant [44 x i8] c"Setting linear solver solve function failed\00", align 1
@.str.14 = private unnamed_addr constant [44 x i8] c"The nonlinear solver's init routine failed.\00", align 1

; Function Attrs: nounwind uwtable
define i32 @cvNlsInitSensSim(ptr noundef %0) #0 {
  %2 = alloca i32, align 4
  %3 = alloca ptr, align 8
  %4 = alloca i32, align 4
  store ptr %0, ptr %3, align 8
  %5 = load ptr, ptr %3, align 8
  %6 = getelementptr inbounds %struct.CVodeMemRec, ptr %5, i32 0, i32 186
  %7 = load ptr, ptr %6, align 8
  %8 = icmp ne ptr %7, null
  br i1 %8, label %9, label %14

9:                                                ; preds = %1
  %10 = load ptr, ptr %3, align 8
  %11 = getelementptr inbounds %struct.CVodeMemRec, ptr %10, i32 0, i32 166
  %12 = load ptr, ptr %11, align 8
  %13 = call i32 @SUNNonlinSolSetLSetupFn(ptr noundef %12, ptr noundef @cvNlsLSetupSensSim)
  store i32 %13, ptr %4, align 4
  br label %19

14:                                               ; preds = %1
  %15 = load ptr, ptr %3, align 8
  %16 = getelementptr inbounds %struct.CVodeMemRec, ptr %15, i32 0, i32 166
  %17 = load ptr, ptr %16, align 8
  %18 = call i32 @SUNNonlinSolSetLSetupFn(ptr noundef %17, ptr noundef null)
  store i32 %18, ptr %4, align 4
  br label %19

19:                                               ; preds = %14, %9
  %20 = load i32, ptr %4, align 4
  %21 = icmp ne i32 %20, 0
  br i1 %21, label %22, label %24

22:                                               ; preds = %19
  %23 = load ptr, ptr %3, align 8
  call void (ptr, i32, i32, ptr, ptr, ptr, ...) @cvProcessError(ptr noundef %23, i32 noundef -22, i32 noundef 263, ptr noundef @__func__.cvNlsInitSensSim, ptr noundef @.str, ptr noundef @.str.12)
  store i32 -13, ptr %2, align 4
  br label %54

24:                                               ; preds = %19
  %25 = load ptr, ptr %3, align 8
  %26 = getelementptr inbounds %struct.CVodeMemRec, ptr %25, i32 0, i32 187
  %27 = load ptr, ptr %26, align 8
  %28 = icmp ne ptr %27, null
  br i1 %28, label %29, label %34

29:                                               ; preds = %24
  %30 = load ptr, ptr %3, align 8
  %31 = getelementptr inbounds %struct.CVodeMemRec, ptr %30, i32 0, i32 166
  %32 = load ptr, ptr %31, align 8
  %33 = call i32 @SUNNonlinSolSetLSolveFn(ptr noundef %32, ptr noundef @cvNlsLSolveSensSim)
  store i32 %33, ptr %4, align 4
  br label %39

34:                                               ; preds = %24
  %35 = load ptr, ptr %3, align 8
  %36 = getelementptr inbounds %struct.CVodeMemRec, ptr %35, i32 0, i32 166
  %37 = load ptr, ptr %36, align 8
  %38 = call i32 @SUNNonlinSolSetLSolveFn(ptr noundef %37, ptr noundef null)
  store i32 %38, ptr %4, align 4
  br label %39

39:                                               ; preds = %34, %29
  %40 = load i32, ptr %4, align 4
  %41 = icmp ne i32 %40, 0
  br i1 %41, label %42, label %44

42:                                               ; preds = %39
  %43 = load ptr, ptr %3, align 8
  call void (ptr, i32, i32, ptr, ptr, ptr, ...) @cvProcessError(ptr noundef %43, i32 noundef -22, i32 noundef 277, ptr noundef @__func__.cvNlsInitSensSim, ptr noundef @.str, ptr noundef @.str.13)
  store i32 -13, ptr %2, align 4
  br label %54

44:                                               ; preds = %39
  %45 = load ptr, ptr %3, align 8
  %46 = getelementptr inbounds %struct.CVodeMemRec, ptr %45, i32 0, i32 166
  %47 = load ptr, ptr %46, align 8
  %48 = call i32 @SUNNonlinSolInitialize(ptr noundef %47)
  store i32 %48, ptr %4, align 4
  %49 = load i32, ptr %4, align 4
  %50 = icmp ne i32 %49, 0
  br i1 %50, label %51, label %53

51:                                               ; preds = %44
  %52 = load ptr, ptr %3, align 8
  call void (ptr, i32, i32, ptr, ptr, ptr, ...) @cvProcessError(ptr noundef %52, i32 noundef -22, i32 noundef 287, ptr noundef @__func__.cvNlsInitSensSim, ptr noundef @.str, ptr noundef @.str.14)
  store i32 -13, ptr %2, align 4
  br label %54

53:                                               ; preds = %44
  store i32 0, ptr %2, align 4
  br label %54

54:                                               ; preds = %53, %51, %42, %22
  %55 = load i32, ptr %2, align 4
  ret i32 %55
}